
mygpio:     file format elf64-littleriscv


Disassembly of section .init:

0000000080000000 <_start>:
    80000000:	00000197          	auipc	gp,0x0
    80000004:	4101b183          	ld	gp,1040(gp) # 80000410 <_GLOBAL_OFFSET_TABLE_+0x10>
    80000008:	00000117          	auipc	sp,0x0
    8000000c:	41013103          	ld	sp,1040(sp) # 80000418 <_GLOBAL_OFFSET_TABLE_+0x18>
    80000010:	00000517          	auipc	a0,0x0
    80000014:	43853503          	ld	a0,1080(a0) # 80000448 <_GLOBAL_OFFSET_TABLE_+0x48>
    80000018:	00000597          	auipc	a1,0x0
    8000001c:	4185b583          	ld	a1,1048(a1) # 80000430 <_GLOBAL_OFFSET_TABLE_+0x30>
    80000020:	00000617          	auipc	a2,0x0
    80000024:	41863603          	ld	a2,1048(a2) # 80000438 <_GLOBAL_OFFSET_TABLE_+0x38>
    80000028:	00c5fc63          	bgeu	a1,a2,80000040 <_start+0x40>
    8000002c:	00052283          	lw	t0,0(a0)
    80000030:	0055a023          	sw	t0,0(a1)
    80000034:	00450513          	addi	a0,a0,4
    80000038:	00458593          	addi	a1,a1,4
    8000003c:	fec5e8e3          	bltu	a1,a2,8000002c <_start+0x2c>
    80000040:	00000517          	auipc	a0,0x0
    80000044:	3e053503          	ld	a0,992(a0) # 80000420 <_GLOBAL_OFFSET_TABLE_+0x20>
    80000048:	00000597          	auipc	a1,0x0
    8000004c:	3f85b583          	ld	a1,1016(a1) # 80000440 <_GLOBAL_OFFSET_TABLE_+0x40>
    80000050:	00b57863          	bgeu	a0,a1,80000060 <_start+0x60>
    80000054:	00052023          	sw	zero,0(a0)
    80000058:	00450513          	addi	a0,a0,4
    8000005c:	feb56ce3          	bltu	a0,a1,80000054 <_start+0x54>
    80000060:	324000ef          	jal	ra,80000384 <_init>
    80000064:	164000ef          	jal	ra,800001c8 <main>

0000000080000068 <loop>:
    80000068:	0000006f          	j	80000068 <loop>

Disassembly of section .text:

000000008000006c <trap_entry>:
    8000006c:	f8010113          	addi	sp,sp,-128
    80000070:	00112223          	sw	ra,4(sp)
    80000074:	00212423          	sw	sp,8(sp)
    80000078:	00312623          	sw	gp,12(sp)
    8000007c:	00412823          	sw	tp,16(sp)
    80000080:	00512a23          	sw	t0,20(sp)
    80000084:	00612c23          	sw	t1,24(sp)
    80000088:	00712e23          	sw	t2,28(sp)
    8000008c:	02812023          	sw	s0,32(sp)
    80000090:	02912223          	sw	s1,36(sp)
    80000094:	02a12423          	sw	a0,40(sp)
    80000098:	02b12623          	sw	a1,44(sp)
    8000009c:	02c12823          	sw	a2,48(sp)
    800000a0:	02d12a23          	sw	a3,52(sp)
    800000a4:	02e12c23          	sw	a4,56(sp)
    800000a8:	02f12e23          	sw	a5,60(sp)
    800000ac:	05012023          	sw	a6,64(sp)
    800000b0:	05112223          	sw	a7,68(sp)
    800000b4:	05212423          	sw	s2,72(sp)
    800000b8:	05312623          	sw	s3,76(sp)
    800000bc:	05412823          	sw	s4,80(sp)
    800000c0:	05512a23          	sw	s5,84(sp)
    800000c4:	05612c23          	sw	s6,88(sp)
    800000c8:	05712e23          	sw	s7,92(sp)
    800000cc:	07812023          	sw	s8,96(sp)
    800000d0:	07912223          	sw	s9,100(sp)
    800000d4:	07a12423          	sw	s10,104(sp)
    800000d8:	07b12623          	sw	s11,108(sp)
    800000dc:	07c12823          	sw	t3,112(sp)
    800000e0:	07d12a23          	sw	t4,116(sp)
    800000e4:	07e12c23          	sw	t5,120(sp)
    800000e8:	07f12e23          	sw	t6,124(sp)
    800000ec:	34202573          	csrr	a0,mcause
    800000f0:	341025f3          	csrr	a1,mepc

00000000800000f4 <test_if_asynchronous>:
    800000f4:	01f55613          	srli	a2,a0,0x1f
    800000f8:	00060663          	beqz	a2,80000104 <handle_synchronous>
    800000fc:	2bc000ef          	jal	ra,800003b8 <trap_handler>
    80000100:	00c0006f          	j	8000010c <asynchronous_return>

0000000080000104 <handle_synchronous>:
    80000104:	00458593          	addi	a1,a1,4
    80000108:	34159073          	csrw	mepc,a1

000000008000010c <asynchronous_return>:
    8000010c:	00412083          	lw	ra,4(sp)
    80000110:	00812103          	lw	sp,8(sp)
    80000114:	00c12183          	lw	gp,12(sp)
    80000118:	01012203          	lw	tp,16(sp)
    8000011c:	01412283          	lw	t0,20(sp)
    80000120:	01812303          	lw	t1,24(sp)
    80000124:	01c12383          	lw	t2,28(sp)
    80000128:	02012403          	lw	s0,32(sp)
    8000012c:	02412483          	lw	s1,36(sp)
    80000130:	02812503          	lw	a0,40(sp)
    80000134:	02c12583          	lw	a1,44(sp)
    80000138:	03012603          	lw	a2,48(sp)
    8000013c:	03412683          	lw	a3,52(sp)
    80000140:	03812703          	lw	a4,56(sp)
    80000144:	03c12783          	lw	a5,60(sp)
    80000148:	04012803          	lw	a6,64(sp)
    8000014c:	04412883          	lw	a7,68(sp)
    80000150:	04812903          	lw	s2,72(sp)
    80000154:	04c12983          	lw	s3,76(sp)
    80000158:	05012a03          	lw	s4,80(sp)
    8000015c:	05412a83          	lw	s5,84(sp)
    80000160:	05812b03          	lw	s6,88(sp)
    80000164:	05c12b83          	lw	s7,92(sp)
    80000168:	06012c03          	lw	s8,96(sp)
    8000016c:	06412c83          	lw	s9,100(sp)
    80000170:	06812d03          	lw	s10,104(sp)
    80000174:	06c12d83          	lw	s11,108(sp)
    80000178:	07012e03          	lw	t3,112(sp)
    8000017c:	07412e83          	lw	t4,116(sp)
    80000180:	07812f03          	lw	t5,120(sp)
    80000184:	07c12f83          	lw	t6,124(sp)
    80000188:	08010113          	addi	sp,sp,128
    8000018c:	30200073          	mret
    80000190:	0000006f          	j	80000190 <asynchronous_return+0x84>

0000000080000194 <outl>:
    80000194:	fe010113          	addi	sp,sp,-32
    80000198:	00813c23          	sd	s0,24(sp)
    8000019c:	02010413          	addi	s0,sp,32
    800001a0:	fea43423          	sd	a0,-24(s0)
    800001a4:	00058793          	mv	a5,a1
    800001a8:	fef42223          	sw	a5,-28(s0)
    800001ac:	fe843783          	ld	a5,-24(s0)
    800001b0:	fe442703          	lw	a4,-28(s0)
    800001b4:	00e7a023          	sw	a4,0(a5)
    800001b8:	00000013          	nop
    800001bc:	01813403          	ld	s0,24(sp)
    800001c0:	02010113          	addi	sp,sp,32
    800001c4:	00008067          	ret

00000000800001c8 <main>:
    800001c8:	fc010113          	addi	sp,sp,-64
    800001cc:	02113c23          	sd	ra,56(sp)
    800001d0:	02813823          	sd	s0,48(sp)
    800001d4:	04010413          	addi	s0,sp,64
    800001d8:	00100793          	li	a5,1
    800001dc:	fcf42623          	sw	a5,-52(s0)
    800001e0:	0003b7b7          	lui	a5,0x3b
    800001e4:	98078793          	addi	a5,a5,-1664 # 3a980 <__stack_size+0x38980>
    800001e8:	fef43023          	sd	a5,-32(s0)
    800001ec:	fc042823          	sw	zero,-48(s0)
    800001f0:	fc042a23          	sw	zero,-44(s0)
    800001f4:	500097b7          	lui	a5,0x50009
    800001f8:	00179793          	slli	a5,a5,0x1
    800001fc:	fef43423          	sd	a5,-24(s0)
    80000200:	00100793          	li	a5,1
    80000204:	fcf42c23          	sw	a5,-40(s0)
    80000208:	00100793          	li	a5,1
    8000020c:	fcf42e23          	sw	a5,-36(s0)
    80000210:	fe843783          	ld	a5,-24(s0)
    80000214:	fcc42703          	lw	a4,-52(s0)
    80000218:	00e7a023          	sw	a4,0(a5) # 50009000 <__stack_size+0x50007000>
    8000021c:	000107b7          	lui	a5,0x10
    80000220:	f0078793          	addi	a5,a5,-256 # ff00 <__stack_size+0xdf00>
    80000224:	fcf42823          	sw	a5,-48(s0)
    80000228:	fd442783          	lw	a5,-44(s0)
    8000022c:	0f07879b          	addiw	a5,a5,240
    80000230:	fcf42a23          	sw	a5,-44(s0)
    80000234:	fd442783          	lw	a5,-44(s0)
    80000238:	0007871b          	sext.w	a4,a5
    8000023c:	000107b7          	lui	a5,0x10
    80000240:	00f76463          	bltu	a4,a5,80000248 <main+0x80>
    80000244:	fc042a23          	sw	zero,-44(s0)
    80000248:	fe043783          	ld	a5,-32(s0)
    8000024c:	00279713          	slli	a4,a5,0x2
    80000250:	00f00793          	li	a5,15
    80000254:	01c79793          	slli	a5,a5,0x1c
    80000258:	00f707b3          	add	a5,a4,a5
    8000025c:	fd042703          	lw	a4,-48(s0)
    80000260:	00070693          	mv	a3,a4
    80000264:	fd442703          	lw	a4,-44(s0)
    80000268:	00e6873b          	addw	a4,a3,a4
    8000026c:	0007071b          	sext.w	a4,a4
    80000270:	00070593          	mv	a1,a4
    80000274:	00078513          	mv	a0,a5
    80000278:	f1dff0ef          	jal	ra,80000194 <outl>
    8000027c:	fe043703          	ld	a4,-32(s0)
    80000280:	0000f7b7          	lui	a5,0xf
    80000284:	a5f78793          	addi	a5,a5,-1441 # ea5f <__stack_size+0xca5f>
    80000288:	00f71863          	bne	a4,a5,80000298 <main+0xd0>
    8000028c:	0ff00793          	li	a5,255
    80000290:	fcf42823          	sw	a5,-48(s0)
    80000294:	0940006f          	j	80000328 <main+0x160>
    80000298:	fe043703          	ld	a4,-32(s0)
    8000029c:	0001d7b7          	lui	a5,0x1d
    800002a0:	4bf78793          	addi	a5,a5,1215 # 1d4bf <__stack_size+0x1b4bf>
    800002a4:	00f71863          	bne	a4,a5,800002b4 <main+0xec>
    800002a8:	00ff07b7          	lui	a5,0xff0
    800002ac:	fcf42823          	sw	a5,-48(s0)
    800002b0:	0780006f          	j	80000328 <main+0x160>
    800002b4:	fe043703          	ld	a4,-32(s0)
    800002b8:	0002c7b7          	lui	a5,0x2c
    800002bc:	f1f78793          	addi	a5,a5,-225 # 2bf1f <__stack_size+0x29f1f>
    800002c0:	00f71a63          	bne	a4,a5,800002d4 <main+0x10c>
    800002c4:	000107b7          	lui	a5,0x10
    800002c8:	f0078793          	addi	a5,a5,-256 # ff00 <__stack_size+0xdf00>
    800002cc:	fcf42823          	sw	a5,-48(s0)
    800002d0:	0580006f          	j	80000328 <main+0x160>
    800002d4:	fe043703          	ld	a4,-32(s0)
    800002d8:	0004e7b7          	lui	a5,0x4e
    800002dc:	1ff78793          	addi	a5,a5,511 # 4e1ff <__stack_size+0x4c1ff>
    800002e0:	00f71863          	bne	a4,a5,800002f0 <main+0x128>
    800002e4:	0ff00793          	li	a5,255
    800002e8:	fcf42823          	sw	a5,-48(s0)
    800002ec:	03c0006f          	j	80000328 <main+0x160>
    800002f0:	fe043703          	ld	a4,-32(s0)
    800002f4:	000627b7          	lui	a5,0x62
    800002f8:	a7f78793          	addi	a5,a5,-1409 # 61a7f <__stack_size+0x5fa7f>
    800002fc:	00f71863          	bne	a4,a5,8000030c <main+0x144>
    80000300:	00ff07b7          	lui	a5,0xff0
    80000304:	fcf42823          	sw	a5,-48(s0)
    80000308:	0200006f          	j	80000328 <main+0x160>
    8000030c:	fe043703          	ld	a4,-32(s0)
    80000310:	000757b7          	lui	a5,0x75
    80000314:	2ff78793          	addi	a5,a5,767 # 752ff <__stack_size+0x732ff>
    80000318:	00f71863          	bne	a4,a5,80000328 <main+0x160>
    8000031c:	000107b7          	lui	a5,0x10
    80000320:	f0078793          	addi	a5,a5,-256 # ff00 <__stack_size+0xdf00>
    80000324:	fcf42823          	sw	a5,-48(s0)
    80000328:	fe043783          	ld	a5,-32(s0)
    8000032c:	00178793          	addi	a5,a5,1
    80000330:	fef43023          	sd	a5,-32(s0)
    80000334:	fe043703          	ld	a4,-32(s0)
    80000338:	000757b7          	lui	a5,0x75
    8000033c:	2ff78793          	addi	a5,a5,767 # 752ff <__stack_size+0x732ff>
    80000340:	f0e7f4e3          	bgeu	a5,a4,80000248 <main+0x80>
    80000344:	fe043023          	sd	zero,-32(s0)
    80000348:	00000013          	nop
    8000034c:	fcc42783          	lw	a5,-52(s0)
    80000350:	0007871b          	sext.w	a4,a5
    80000354:	01000793          	li	a5,16
    80000358:	00f71863          	bne	a4,a5,80000368 <main+0x1a0>
    8000035c:	00100793          	li	a5,1
    80000360:	fcf42623          	sw	a5,-52(s0)
    80000364:	0100006f          	j	80000374 <main+0x1ac>
    80000368:	fcc42783          	lw	a5,-52(s0)
    8000036c:	0017979b          	slliw	a5,a5,0x1
    80000370:	fcf42623          	sw	a5,-52(s0)
    80000374:	fe843783          	ld	a5,-24(s0)
    80000378:	fcc42703          	lw	a4,-52(s0)
    8000037c:	00e7a023          	sw	a4,0(a5)
    80000380:	ea9ff06f          	j	80000228 <main+0x60>

0000000080000384 <_init>:
    80000384:	ff010113          	addi	sp,sp,-16
    80000388:	00813423          	sd	s0,8(sp)
    8000038c:	01010413          	addi	s0,sp,16
    80000390:	00000797          	auipc	a5,0x0
    80000394:	0987b783          	ld	a5,152(a5) # 80000428 <_GLOBAL_OFFSET_TABLE_+0x28>
    80000398:	30579073          	csrw	mtvec,a5
    8000039c:	000027b7          	lui	a5,0x2
    800003a0:	8887879b          	addiw	a5,a5,-1912 # 1888 <__stack_size-0x778>
    800003a4:	30079073          	csrw	mstatus,a5
    800003a8:	00000013          	nop
    800003ac:	00813403          	ld	s0,8(sp)
    800003b0:	01010113          	addi	sp,sp,16
    800003b4:	00008067          	ret

00000000800003b8 <trap_handler>:
    800003b8:	fe010113          	addi	sp,sp,-32
    800003bc:	00113c23          	sd	ra,24(sp)
    800003c0:	00813823          	sd	s0,16(sp)
    800003c4:	02010413          	addi	s0,sp,32
    800003c8:	00050793          	mv	a5,a0
    800003cc:	00058713          	mv	a4,a1
    800003d0:	fef42623          	sw	a5,-20(s0)
    800003d4:	00070793          	mv	a5,a4
    800003d8:	fef42423          	sw	a5,-24(s0)
    800003dc:	00000317          	auipc	t1,0x0
    800003e0:	02c33303          	ld	t1,44(t1) # 80000408 <_GLOBAL_OFFSET_TABLE_+0x8>
    800003e4:	000300e7          	jalr	t1
    800003e8:	00000013          	nop
    800003ec:	01813083          	ld	ra,24(sp)
    800003f0:	01013403          	ld	s0,16(sp)
    800003f4:	02010113          	addi	sp,sp,32
    800003f8:	00008067          	ret
